(lp1
ccopy_reg
_reconstructor
p2
(cfatiando.mesher
Prism
p3
c__builtin__
object
p4
NtRp5
(dp6
S'y2'
p7
F-4950
sS'y1'
p8
F-5000
sS'props'
p9
(dp10
S'density'
p11
I500
ssS'x2'
p12
F4000
sS'x1'
p13
F-4000
sS'z1'
p14
F4000
sS'z2'
p15
F4000
sbag2
(g3
g4
NtRp16
(dp17
g7
F-4900
sg8
F-4950
sg9
(dp18
g11
I500
ssg12
F4000
sg13
F-4000
sg14
F4000
sg15
F3959.5959595959594
sbag2
(g3
g4
NtRp19
(dp20
g7
F-4850
sg8
F-4900
sg9
(dp21
g11
I500
ssg12
F4000
sg13
F-4000
sg14
F4000
sg15
F3919.1919191919187
sbag2
(g3
g4
NtRp22
(dp23
g7
F-4800
sg8
F-4850
sg9
(dp24
g11
I500
ssg12
F4000
sg13
F-4000
sg14
F4000
sg15
F3878.7878787878785
sbag2
(g3
g4
NtRp25
(dp26
g7
F-4750
sg8
F-4800
sg9
(dp27
g11
I500
ssg12
F4000
sg13
F-4000
sg14
F4000
sg15
F3838.3838383838383
sbag2
(g3
g4
NtRp28
(dp29
g7
F-4700
sg8
F-4750
sg9
(dp30
g11
I500
ssg12
F4000
sg13
F-4000
sg14
F4000
sg15
F3797.9797979797977
sbag2
(g3
g4
NtRp31
(dp32
g7
F-4650
sg8
F-4700
sg9
(dp33
g11
I500
ssg12
F4000
sg13
F-4000
sg14
F4000
sg15
F3757.5757575757575
sbag2
(g3
g4
NtRp34
(dp35
g7
F-4600
sg8
F-4650
sg9
(dp36
g11
I500
ssg12
F4000
sg13
F-4000
sg14
F4000
sg15
F3717.1717171717169
sbag2
(g3
g4
NtRp37
(dp38
g7
F-4550
sg8
F-4600
sg9
(dp39
g11
I500
ssg12
F4000
sg13
F-4000
sg14
F4000
sg15
F3676.7676767676767
sbag2
(g3
g4
NtRp40
(dp41
g7
F-4500
sg8
F-4550
sg9
(dp42
g11
I500
ssg12
F4000
sg13
F-4000
sg14
F4000
sg15
F3636.363636363636
sbag2
(g3
g4
NtRp43
(dp44
g7
F-4450
sg8
F-4500
sg9
(dp45
g11
I500
ssg12
F4000
sg13
F-4000
sg14
F4000
sg15
F3595.9595959595958
sbag2
(g3
g4
NtRp46
(dp47
g7
F-4400
sg8
F-4450
sg9
(dp48
g11
I500
ssg12
F4000
sg13
F-4000
sg14
F4000
sg15
F3555.5555555555552
sbag2
(g3
g4
NtRp49
(dp50
g7
F-4350
sg8
F-4400
sg9
(dp51
g11
I500
ssg12
F4000
sg13
F-4000
sg14
F4000
sg15
F3515.151515151515
sbag2
(g3
g4
NtRp52
(dp53
g7
F-4300
sg8
F-4350
sg9
(dp54
g11
I500
ssg12
F4000
sg13
F-4000
sg14
F4000
sg15
F3474.7474747474744
sbag2
(g3
g4
NtRp55
(dp56
g7
F-4250
sg8
F-4300
sg9
(dp57
g11
I500
ssg12
F4000
sg13
F-4000
sg14
F4000
sg15
F3434.3434343434342
sbag2
(g3
g4
NtRp58
(dp59
g7
F-4200
sg8
F-4250
sg9
(dp60
g11
I500
ssg12
F4000
sg13
F-4000
sg14
F4000
sg15
F3393.9393939393935
sbag2
(g3
g4
NtRp61
(dp62
g7
F-4150
sg8
F-4200
sg9
(dp63
g11
I500
ssg12
F4000
sg13
F-4000
sg14
F4000
sg15
F3353.5353535353534
sbag2
(g3
g4
NtRp64
(dp65
g7
F-4100
sg8
F-4150
sg9
(dp66
g11
I500
ssg12
F4000
sg13
F-4000
sg14
F4000
sg15
F3313.1313131313127
sbag2
(g3
g4
NtRp67
(dp68
g7
F-4050
sg8
F-4100
sg9
(dp69
g11
I500
ssg12
F4000
sg13
F-4000
sg14
F4000
sg15
F3272.7272727272725
sbag2
(g3
g4
NtRp70
(dp71
g7
F-4000
sg8
F-4050
sg9
(dp72
g11
I500
ssg12
F4000
sg13
F-4000
sg14
F4000
sg15
F3232.3232323232323
sbag2
(g3
g4
NtRp73
(dp74
g7
F-3950
sg8
F-4000
sg9
(dp75
g11
I500
ssg12
F4000
sg13
F-4000
sg14
F4000
sg15
F3191.9191919191917
sbag2
(g3
g4
NtRp76
(dp77
g7
F-3900
sg8
F-3950
sg9
(dp78
g11
I500
ssg12
F4000
sg13
F-4000
sg14
F4000
sg15
F3151.5151515151515
sbag2
(g3
g4
NtRp79
(dp80
g7
F-3850
sg8
F-3900
sg9
(dp81
g11
I500
ssg12
F4000
sg13
F-4000
sg14
F4000
sg15
F3111.1111111111109
sbag2
(g3
g4
NtRp82
(dp83
g7
F-3800
sg8
F-3850
sg9
(dp84
g11
I500
ssg12
F4000
sg13
F-4000
sg14
F4000
sg15
F3070.7070707070707
sbag2
(g3
g4
NtRp85
(dp86
g7
F-3750
sg8
F-3800
sg9
(dp87
g11
I500
ssg12
F4000
sg13
F-4000
sg14
F4000
sg15
F3030.30303030303
sbag2
(g3
g4
NtRp88
(dp89
g7
F-3700
sg8
F-3750
sg9
(dp90
g11
I500
ssg12
F4000
sg13
F-4000
sg14
F4000
sg15
F2989.8989898989898
sbag2
(g3
g4
NtRp91
(dp92
g7
F-3650
sg8
F-3700
sg9
(dp93
g11
I500
ssg12
F4000
sg13
F-4000
sg14
F4000
sg15
F2949.4949494949492
sbag2
(g3
g4
NtRp94
(dp95
g7
F-3600
sg8
F-3650
sg9
(dp96
g11
I500
ssg12
F4000
sg13
F-4000
sg14
F4000
sg15
F2909.090909090909
sbag2
(g3
g4
NtRp97
(dp98
g7
F-3550
sg8
F-3600
sg9
(dp99
g11
I500
ssg12
F4000
sg13
F-4000
sg14
F4000
sg15
F2868.6868686868684
sbag2
(g3
g4
NtRp100
(dp101
g7
F-3500
sg8
F-3550
sg9
(dp102
g11
I500
ssg12
F4000
sg13
F-4000
sg14
F4000
sg15
F2828.2828282828282
sbag2
(g3
g4
NtRp103
(dp104
g7
F-3450
sg8
F-3500
sg9
(dp105
g11
I500
ssg12
F4000
sg13
F-4000
sg14
F4000
sg15
F2787.8787878787875
sbag2
(g3
g4
NtRp106
(dp107
g7
F-3400
sg8
F-3450
sg9
(dp108
g11
I500
ssg12
F4000
sg13
F-4000
sg14
F4000
sg15
F2747.4747474747473
sbag2
(g3
g4
NtRp109
(dp110
g7
F-3350
sg8
F-3400
sg9
(dp111
g11
I500
ssg12
F4000
sg13
F-4000
sg14
F4000
sg15
F2707.0707070707067
sbag2
(g3
g4
NtRp112
(dp113
g7
F-3300
sg8
F-3350
sg9
(dp114
g11
I500
ssg12
F4000
sg13
F-4000
sg14
F4000
sg15
F2666.6666666666665
sbag2
(g3
g4
NtRp115
(dp116
g7
F-3250
sg8
F-3300
sg9
(dp117
g11
I500
ssg12
F4000
sg13
F-4000
sg14
F4000
sg15
F2626.2626262626259
sbag2
(g3
g4
NtRp118
(dp119
g7
F-3200
sg8
F-3250
sg9
(dp120
g11
I500
ssg12
F4000
sg13
F-4000
sg14
F4000
sg15
F2585.8585858585857
sbag2
(g3
g4
NtRp121
(dp122
g7
F-3150
sg8
F-3200
sg9
(dp123
g11
I500
ssg12
F4000
sg13
F-4000
sg14
F4000
sg15
F2545.4545454545455
sbag2
(g3
g4
NtRp124
(dp125
g7
F-3100
sg8
F-3150
sg9
(dp126
g11
I500
ssg12
F4000
sg13
F-4000
sg14
F4000
sg15
F2505.0505050505049
sbag2
(g3
g4
NtRp127
(dp128
g7
F-3050
sg8
F-3100
sg9
(dp129
g11
I500
ssg12
F4000
sg13
F-4000
sg14
F4000
sg15
F2464.6464646464647
sbag2
(g3
g4
NtRp130
(dp131
g7
F-3000
sg8
F-3050
sg9
(dp132
g11
I500
ssg12
F4000
sg13
F-4000
sg14
F4000
sg15
F2424.242424242424
sbag2
(g3
g4
NtRp133
(dp134
g7
F-2950
sg8
F-3000
sg9
(dp135
g11
I500
ssg12
F4000
sg13
F-4000
sg14
F4000
sg15
F2383.8383838383838
sbag2
(g3
g4
NtRp136
(dp137
g7
F-2900
sg8
F-2950
sg9
(dp138
g11
I500
ssg12
F4000
sg13
F-4000
sg14
F4000
sg15
F2343.4343434343432
sbag2
(g3
g4
NtRp139
(dp140
g7
F-2850
sg8
F-2900
sg9
(dp141
g11
I500
ssg12
F4000
sg13
F-4000
sg14
F4000
sg15
F2303.030303030303
sbag2
(g3
g4
NtRp142
(dp143
g7
F-2800
sg8
F-2850
sg9
(dp144
g11
I500
ssg12
F4000
sg13
F-4000
sg14
F4000
sg15
F2262.6262626262624
sbag2
(g3
g4
NtRp145
(dp146
g7
F-2750
sg8
F-2800
sg9
(dp147
g11
I500
ssg12
F4000
sg13
F-4000
sg14
F4000
sg15
F2222.2222222222222
sbag2
(g3
g4
NtRp148
(dp149
g7
F-2700
sg8
F-2750
sg9
(dp150
g11
I500
ssg12
F4000
sg13
F-4000
sg14
F4000
sg15
F2181.8181818181815
sbag2
(g3
g4
NtRp151
(dp152
g7
F-2650
sg8
F-2700
sg9
(dp153
g11
I500
ssg12
F4000
sg13
F-4000
sg14
F4000
sg15
F2141.4141414141413
sbag2
(g3
g4
NtRp154
(dp155
g7
F-2600
sg8
F-2650
sg9
(dp156
g11
I500
ssg12
F4000
sg13
F-4000
sg14
F4000
sg15
F2101.0101010101007
sbag2
(g3
g4
NtRp157
(dp158
g7
F-2550
sg8
F-2600
sg9
(dp159
g11
I500
ssg12
F4000
sg13
F-4000
sg14
F4000
sg15
F2060.6060606060605
sbag2
(g3
g4
NtRp160
(dp161
g7
F-2500
sg8
F-2550
sg9
(dp162
g11
I500
ssg12
F4000
sg13
F-4000
sg14
F4000
sg15
F2020.2020202020201
sbag2
(g3
g4
NtRp163
(dp164
g7
F-2450
sg8
F-2500
sg9
(dp165
g11
I500
ssg12
F4000
sg13
F-4000
sg14
F4000
sg15
F1979.7979797979797
sbag2
(g3
g4
NtRp166
(dp167
g7
F-2400
sg8
F-2450
sg9
(dp168
g11
I500
ssg12
F4000
sg13
F-4000
sg14
F4000
sg15
F1939.3939393939393
sbag2
(g3
g4
NtRp169
(dp170
g7
F-2350
sg8
F-2400
sg9
(dp171
g11
I500
ssg12
F4000
sg13
F-4000
sg14
F4000
sg15
F1898.9898989898988
sbag2
(g3
g4
NtRp172
(dp173
g7
F-2300
sg8
F-2350
sg9
(dp174
g11
I500
ssg12
F4000
sg13
F-4000
sg14
F4000
sg15
F1858.5858585858584
sbag2
(g3
g4
NtRp175
(dp176
g7
F-2250
sg8
F-2300
sg9
(dp177
g11
I500
ssg12
F4000
sg13
F-4000
sg14
F4000
sg15
F1818.181818181818
sbag2
(g3
g4
NtRp178
(dp179
g7
F-2200
sg8
F-2250
sg9
(dp180
g11
I500
ssg12
F4000
sg13
F-4000
sg14
F4000
sg15
F1777.7777777777776
sbag2
(g3
g4
NtRp181
(dp182
g7
F-2150
sg8
F-2200
sg9
(dp183
g11
I500
ssg12
F4000
sg13
F-4000
sg14
F4000
sg15
F1737.3737373737372
sbag2
(g3
g4
NtRp184
(dp185
g7
F-2100
sg8
F-2150
sg9
(dp186
g11
I500
ssg12
F4000
sg13
F-4000
sg14
F4000
sg15
F1696.9696969696968
sbag2
(g3
g4
NtRp187
(dp188
g7
F-2050
sg8
F-2100
sg9
(dp189
g11
I500
ssg12
F4000
sg13
F-4000
sg14
F4000
sg15
F1656.5656565656564
sbag2
(g3
g4
NtRp190
(dp191
g7
F-2000
sg8
F-2050
sg9
(dp192
g11
I500
ssg12
F4000
sg13
F-4000
sg14
F4000
sg15
F1616.1616161616162
sbag2
(g3
g4
NtRp193
(dp194
g7
F-1950
sg8
F-2000
sg9
(dp195
g11
I500
ssg12
F4000
sg13
F-4000
sg14
F4000
sg15
F1575.7575757575758
sbag2
(g3
g4
NtRp196
(dp197
g7
F-1900
sg8
F-1950
sg9
(dp198
g11
I500
ssg12
F4000
sg13
F-4000
sg14
F4000
sg15
F1535.3535353535353
sbag2
(g3
g4
NtRp199
(dp200
g7
F-1850
sg8
F-1900
sg9
(dp201
g11
I500
ssg12
F4000
sg13
F-4000
sg14
F4000
sg15
F1494.9494949494949
sbag2
(g3
g4
NtRp202
(dp203
g7
F-1800
sg8
F-1850
sg9
(dp204
g11
I500
ssg12
F4000
sg13
F-4000
sg14
F4000
sg15
F1454.5454545454545
sbag2
(g3
g4
NtRp205
(dp206
g7
F-1750
sg8
F-1800
sg9
(dp207
g11
I500
ssg12
F4000
sg13
F-4000
sg14
F4000
sg15
F1414.1414141414141
sbag2
(g3
g4
NtRp208
(dp209
g7
F-1700
sg8
F-1750
sg9
(dp210
g11
I500
ssg12
F4000
sg13
F-4000
sg14
F4000
sg15
F1373.7373737373737
sbag2
(g3
g4
NtRp211
(dp212
g7
F-1650
sg8
F-1700
sg9
(dp213
g11
I500
ssg12
F4000
sg13
F-4000
sg14
F4000
sg15
F1333.3333333333333
sbag2
(g3
g4
NtRp214
(dp215
g7
F-1600
sg8
F-1650
sg9
(dp216
g11
I500
ssg12
F4000
sg13
F-4000
sg14
F4000
sg15
F1292.9292929292928
sbag2
(g3
g4
NtRp217
(dp218
g7
F-1550
sg8
F-1600
sg9
(dp219
g11
I500
ssg12
F4000
sg13
F-4000
sg14
F4000
sg15
F1252.5252525252524
sbag2
(g3
g4
NtRp220
(dp221
g7
F-1500
sg8
F-1550
sg9
(dp222
g11
I500
ssg12
F4000
sg13
F-4000
sg14
F4000
sg15
F1212.121212121212
sbag2
(g3
g4
NtRp223
(dp224
g7
F-1450
sg8
F-1500
sg9
(dp225
g11
I500
ssg12
F4000
sg13
F-4000
sg14
F4000
sg15
F1171.7171717171716
sbag2
(g3
g4
NtRp226
(dp227
g7
F-1400
sg8
F-1450
sg9
(dp228
g11
I500
ssg12
F4000
sg13
F-4000
sg14
F4000
sg15
F1131.3131313131312
sbag2
(g3
g4
NtRp229
(dp230
g7
F-1350
sg8
F-1400
sg9
(dp231
g11
I500
ssg12
F4000
sg13
F-4000
sg14
F4000
sg15
F1090.9090909090908
sbag2
(g3
g4
NtRp232
(dp233
g7
F-1300
sg8
F-1350
sg9
(dp234
g11
I500
ssg12
F4000
sg13
F-4000
sg14
F4000
sg15
F1050.5050505050503
sbag2
(g3
g4
NtRp235
(dp236
g7
F-1250
sg8
F-1300
sg9
(dp237
g11
I500
ssg12
F4000
sg13
F-4000
sg14
F4000
sg15
F1010.10101010101
sbag2
(g3
g4
NtRp238
(dp239
g7
F-1200
sg8
F-1250
sg9
(dp240
g11
I500
ssg12
F4000
sg13
F-4000
sg14
F4000
sg15
F969.69696969696963
sbag2
(g3
g4
NtRp241
(dp242
g7
F-1150
sg8
F-1200
sg9
(dp243
g11
I500
ssg12
F4000
sg13
F-4000
sg14
F4000
sg15
F929.29292929292922
sbag2
(g3
g4
NtRp244
(dp245
g7
F-1100
sg8
F-1150
sg9
(dp246
g11
I500
ssg12
F4000
sg13
F-4000
sg14
F4000
sg15
F888.8888888888888
sbag2
(g3
g4
NtRp247
(dp248
g7
F-1050
sg8
F-1100
sg9
(dp249
g11
I500
ssg12
F4000
sg13
F-4000
sg14
F4000
sg15
F848.48484848484838
sbag2
(g3
g4
NtRp250
(dp251
g7
F-1000
sg8
F-1050
sg9
(dp252
g11
I500
ssg12
F4000
sg13
F-4000
sg14
F4000
sg15
F808.08080808080808
sbag2
(g3
g4
NtRp253
(dp254
g7
F-950
sg8
F-1000
sg9
(dp255
g11
I500
ssg12
F4000
sg13
F-4000
sg14
F4000
sg15
F767.67676767676767
sbag2
(g3
g4
NtRp256
(dp257
g7
F-900
sg8
F-950
sg9
(dp258
g11
I500
ssg12
F4000
sg13
F-4000
sg14
F4000
sg15
F727.27272727272725
sbag2
(g3
g4
NtRp259
(dp260
g7
F-850
sg8
F-900
sg9
(dp261
g11
I500
ssg12
F4000
sg13
F-4000
sg14
F4000
sg15
F686.86868686868684
sbag2
(g3
g4
NtRp262
(dp263
g7
F-800
sg8
F-850
sg9
(dp264
g11
I500
ssg12
F4000
sg13
F-4000
sg14
F4000
sg15
F646.46464646464642
sbag2
(g3
g4
NtRp265
(dp266
g7
F-750
sg8
F-800
sg9
(dp267
g11
I500
ssg12
F4000
sg13
F-4000
sg14
F4000
sg15
F606.06060606060601
sbag2
(g3
g4
NtRp268
(dp269
g7
F-700
sg8
F-750
sg9
(dp270
g11
I500
ssg12
F4000
sg13
F-4000
sg14
F4000
sg15
F565.65656565656559
sbag2
(g3
g4
NtRp271
(dp272
g7
F-650
sg8
F-700
sg9
(dp273
g11
I500
ssg12
F4000
sg13
F-4000
sg14
F4000
sg15
F525.25252525252517
sbag2
(g3
g4
NtRp274
(dp275
g7
F-600
sg8
F-650
sg9
(dp276
g11
I500
ssg12
F4000
sg13
F-4000
sg14
F4000
sg15
F484.84848484848482
sbag2
(g3
g4
NtRp277
(dp278
g7
F-550
sg8
F-600
sg9
(dp279
g11
I500
ssg12
F4000
sg13
F-4000
sg14
F4000
sg15
F444.4444444444444
sbag2
(g3
g4
NtRp280
(dp281
g7
F-500
sg8
F-550
sg9
(dp282
g11
I500
ssg12
F4000
sg13
F-4000
sg14
F4000
sg15
F404.04040404040404
sbag2
(g3
g4
NtRp283
(dp284
g7
F-450
sg8
F-500
sg9
(dp285
g11
I500
ssg12
F4000
sg13
F-4000
sg14
F4000
sg15
F363.63636363636363
sbag2
(g3
g4
NtRp286
(dp287
g7
F-400
sg8
F-450
sg9
(dp288
g11
I500
ssg12
F4000
sg13
F-4000
sg14
F4000
sg15
F323.23232323232321
sbag2
(g3
g4
NtRp289
(dp290
g7
F-350
sg8
F-400
sg9
(dp291
g11
I500
ssg12
F4000
sg13
F-4000
sg14
F4000
sg15
F282.82828282828279
sbag2
(g3
g4
NtRp292
(dp293
g7
F-300
sg8
F-350
sg9
(dp294
g11
I500
ssg12
F4000
sg13
F-4000
sg14
F4000
sg15
F242.42424242424241
sbag2
(g3
g4
NtRp295
(dp296
g7
F-250
sg8
F-300
sg9
(dp297
g11
I500
ssg12
F4000
sg13
F-4000
sg14
F4000
sg15
F202.02020202020202
sbag2
(g3
g4
NtRp298
(dp299
g7
F-200
sg8
F-250
sg9
(dp300
g11
I500
ssg12
F4000
sg13
F-4000
sg14
F4000
sg15
F161.61616161616161
sbag2
(g3
g4
NtRp301
(dp302
g7
F-150
sg8
F-200
sg9
(dp303
g11
I500
ssg12
F4000
sg13
F-4000
sg14
F4000
sg15
F121.2121212121212
sbag2
(g3
g4
NtRp304
(dp305
g7
F-100
sg8
F-150
sg9
(dp306
g11
I500
ssg12
F4000
sg13
F-4000
sg14
F4000
sg15
F80.808080808080803
sbag2
(g3
g4
NtRp307
(dp308
g7
F-50
sg8
F-100
sg9
(dp309
g11
I500
ssg12
F4000
sg13
F-4000
sg14
F4000
sg15
F40.404040404040401
sbag2
(g3
g4
NtRp310
(dp311
g7
F4950
sg8
F-50
sg9
(dp312
g11
I500
ssg12
F4000
sg13
F-4000
sg14
F4000
sg15
F0
sba.