(lp1
ccopy_reg
_reconstructor
p2
(cfatiando.mesher
Prism
p3
c__builtin__
object
p4
NtRp5
(dp6
S'y2'
p7
F-7840
sS'y1'
p8
F-8000
sS'props'
p9
(dp10
S'density'
p11
I500
ssS'x2'
p12
F4000
sS'x1'
p13
F-4000
sS'z1'
p14
F0
sS'z2'
p15
F0
sbag2
(g3
g4
NtRp16
(dp17
g7
F-7680
sg8
F-7840
sg9
(dp18
g11
I500
ssg12
F4000
sg13
F-4000
sg14
F40.404040404040401
sg15
F0
sbag2
(g3
g4
NtRp19
(dp20
g7
F-7520
sg8
F-7680
sg9
(dp21
g11
I500
ssg12
F4000
sg13
F-4000
sg14
F80.808080808080803
sg15
F0
sbag2
(g3
g4
NtRp22
(dp23
g7
F-7360
sg8
F-7520
sg9
(dp24
g11
I500
ssg12
F4000
sg13
F-4000
sg14
F121.2121212121212
sg15
F0
sbag2
(g3
g4
NtRp25
(dp26
g7
F-7200
sg8
F-7360
sg9
(dp27
g11
I500
ssg12
F4000
sg13
F-4000
sg14
F161.61616161616161
sg15
F0
sbag2
(g3
g4
NtRp28
(dp29
g7
F-7040
sg8
F-7200
sg9
(dp30
g11
I500
ssg12
F4000
sg13
F-4000
sg14
F202.02020202020202
sg15
F0
sbag2
(g3
g4
NtRp31
(dp32
g7
F-6880
sg8
F-7040
sg9
(dp33
g11
I500
ssg12
F4000
sg13
F-4000
sg14
F242.42424242424241
sg15
F0
sbag2
(g3
g4
NtRp34
(dp35
g7
F-6720
sg8
F-6880
sg9
(dp36
g11
I500
ssg12
F4000
sg13
F-4000
sg14
F282.82828282828279
sg15
F0
sbag2
(g3
g4
NtRp37
(dp38
g7
F-6560
sg8
F-6720
sg9
(dp39
g11
I500
ssg12
F4000
sg13
F-4000
sg14
F323.23232323232321
sg15
F0
sbag2
(g3
g4
NtRp40
(dp41
g7
F-6400
sg8
F-6560
sg9
(dp42
g11
I500
ssg12
F4000
sg13
F-4000
sg14
F363.63636363636363
sg15
F0
sbag2
(g3
g4
NtRp43
(dp44
g7
F-6240
sg8
F-6400
sg9
(dp45
g11
I500
ssg12
F4000
sg13
F-4000
sg14
F404.04040404040404
sg15
F0
sbag2
(g3
g4
NtRp46
(dp47
g7
F-6080
sg8
F-6240
sg9
(dp48
g11
I500
ssg12
F4000
sg13
F-4000
sg14
F444.4444444444444
sg15
F0
sbag2
(g3
g4
NtRp49
(dp50
g7
F-5920
sg8
F-6080
sg9
(dp51
g11
I500
ssg12
F4000
sg13
F-4000
sg14
F484.84848484848482
sg15
F0
sbag2
(g3
g4
NtRp52
(dp53
g7
F-5760
sg8
F-5920
sg9
(dp54
g11
I500
ssg12
F4000
sg13
F-4000
sg14
F525.25252525252517
sg15
F0
sbag2
(g3
g4
NtRp55
(dp56
g7
F-5600
sg8
F-5760
sg9
(dp57
g11
I500
ssg12
F4000
sg13
F-4000
sg14
F565.65656565656559
sg15
F0
sbag2
(g3
g4
NtRp58
(dp59
g7
F-5440
sg8
F-5600
sg9
(dp60
g11
I500
ssg12
F4000
sg13
F-4000
sg14
F606.06060606060601
sg15
F0
sbag2
(g3
g4
NtRp61
(dp62
g7
F-5280
sg8
F-5440
sg9
(dp63
g11
I500
ssg12
F4000
sg13
F-4000
sg14
F646.46464646464642
sg15
F0
sbag2
(g3
g4
NtRp64
(dp65
g7
F-5120
sg8
F-5280
sg9
(dp66
g11
I500
ssg12
F4000
sg13
F-4000
sg14
F686.86868686868684
sg15
F0
sbag2
(g3
g4
NtRp67
(dp68
g7
F-4960
sg8
F-5120
sg9
(dp69
g11
I500
ssg12
F4000
sg13
F-4000
sg14
F727.27272727272725
sg15
F0
sbag2
(g3
g4
NtRp70
(dp71
g7
F-4800
sg8
F-4960
sg9
(dp72
g11
I500
ssg12
F4000
sg13
F-4000
sg14
F767.67676767676767
sg15
F0
sbag2
(g3
g4
NtRp73
(dp74
g7
F-4640
sg8
F-4800
sg9
(dp75
g11
I500
ssg12
F4000
sg13
F-4000
sg14
F808.08080808080808
sg15
F0
sbag2
(g3
g4
NtRp76
(dp77
g7
F-4480
sg8
F-4640
sg9
(dp78
g11
I500
ssg12
F4000
sg13
F-4000
sg14
F848.48484848484838
sg15
F0
sbag2
(g3
g4
NtRp79
(dp80
g7
F-4320
sg8
F-4480
sg9
(dp81
g11
I500
ssg12
F4000
sg13
F-4000
sg14
F888.8888888888888
sg15
F0
sbag2
(g3
g4
NtRp82
(dp83
g7
F-4160
sg8
F-4320
sg9
(dp84
g11
I500
ssg12
F4000
sg13
F-4000
sg14
F929.29292929292922
sg15
F0
sbag2
(g3
g4
NtRp85
(dp86
g7
F-4000
sg8
F-4160
sg9
(dp87
g11
I500
ssg12
F4000
sg13
F-4000
sg14
F969.69696969696963
sg15
F0
sbag2
(g3
g4
NtRp88
(dp89
g7
F-3840
sg8
F-4000
sg9
(dp90
g11
I500
ssg12
F4000
sg13
F-4000
sg14
F1010.10101010101
sg15
F0
sbag2
(g3
g4
NtRp91
(dp92
g7
F-3680
sg8
F-3840
sg9
(dp93
g11
I500
ssg12
F4000
sg13
F-4000
sg14
F1050.5050505050503
sg15
F0
sbag2
(g3
g4
NtRp94
(dp95
g7
F-3520
sg8
F-3680
sg9
(dp96
g11
I500
ssg12
F4000
sg13
F-4000
sg14
F1090.9090909090908
sg15
F0
sbag2
(g3
g4
NtRp97
(dp98
g7
F-3360
sg8
F-3520
sg9
(dp99
g11
I500
ssg12
F4000
sg13
F-4000
sg14
F1131.3131313131312
sg15
F0
sbag2
(g3
g4
NtRp100
(dp101
g7
F-3200
sg8
F-3360
sg9
(dp102
g11
I500
ssg12
F4000
sg13
F-4000
sg14
F1171.7171717171716
sg15
F0
sbag2
(g3
g4
NtRp103
(dp104
g7
F-3040
sg8
F-3200
sg9
(dp105
g11
I500
ssg12
F4000
sg13
F-4000
sg14
F1212.121212121212
sg15
F0
sbag2
(g3
g4
NtRp106
(dp107
g7
F-2880
sg8
F-3040
sg9
(dp108
g11
I500
ssg12
F4000
sg13
F-4000
sg14
F1252.5252525252524
sg15
F0
sbag2
(g3
g4
NtRp109
(dp110
g7
F-2720
sg8
F-2880
sg9
(dp111
g11
I500
ssg12
F4000
sg13
F-4000
sg14
F1292.9292929292928
sg15
F0
sbag2
(g3
g4
NtRp112
(dp113
g7
F-2560
sg8
F-2720
sg9
(dp114
g11
I500
ssg12
F4000
sg13
F-4000
sg14
F1333.3333333333333
sg15
F0
sbag2
(g3
g4
NtRp115
(dp116
g7
F-2400
sg8
F-2560
sg9
(dp117
g11
I500
ssg12
F4000
sg13
F-4000
sg14
F1373.7373737373737
sg15
F0
sbag2
(g3
g4
NtRp118
(dp119
g7
F-2240
sg8
F-2400
sg9
(dp120
g11
I500
ssg12
F4000
sg13
F-4000
sg14
F1414.1414141414141
sg15
F0
sbag2
(g3
g4
NtRp121
(dp122
g7
F-2080
sg8
F-2240
sg9
(dp123
g11
I500
ssg12
F4000
sg13
F-4000
sg14
F1454.5454545454545
sg15
F0
sbag2
(g3
g4
NtRp124
(dp125
g7
F-1920
sg8
F-2080
sg9
(dp126
g11
I500
ssg12
F4000
sg13
F-4000
sg14
F1494.9494949494949
sg15
F0
sbag2
(g3
g4
NtRp127
(dp128
g7
F-1760
sg8
F-1920
sg9
(dp129
g11
I500
ssg12
F4000
sg13
F-4000
sg14
F1535.3535353535353
sg15
F0
sbag2
(g3
g4
NtRp130
(dp131
g7
F-1600
sg8
F-1760
sg9
(dp132
g11
I500
ssg12
F4000
sg13
F-4000
sg14
F1575.7575757575758
sg15
F0
sbag2
(g3
g4
NtRp133
(dp134
g7
F-1440
sg8
F-1600
sg9
(dp135
g11
I500
ssg12
F4000
sg13
F-4000
sg14
F1616.1616161616162
sg15
F0
sbag2
(g3
g4
NtRp136
(dp137
g7
F-1280
sg8
F-1440
sg9
(dp138
g11
I500
ssg12
F4000
sg13
F-4000
sg14
F1656.5656565656564
sg15
F0
sbag2
(g3
g4
NtRp139
(dp140
g7
F-1120
sg8
F-1280
sg9
(dp141
g11
I500
ssg12
F4000
sg13
F-4000
sg14
F1696.9696969696968
sg15
F0
sbag2
(g3
g4
NtRp142
(dp143
g7
F-960
sg8
F-1120
sg9
(dp144
g11
I500
ssg12
F4000
sg13
F-4000
sg14
F1737.3737373737372
sg15
F0
sbag2
(g3
g4
NtRp145
(dp146
g7
F-800
sg8
F-960
sg9
(dp147
g11
I500
ssg12
F4000
sg13
F-4000
sg14
F1777.7777777777776
sg15
F0
sbag2
(g3
g4
NtRp148
(dp149
g7
F-640
sg8
F-800
sg9
(dp150
g11
I500
ssg12
F4000
sg13
F-4000
sg14
F1818.181818181818
sg15
F0
sbag2
(g3
g4
NtRp151
(dp152
g7
F-480
sg8
F-640
sg9
(dp153
g11
I500
ssg12
F4000
sg13
F-4000
sg14
F1858.5858585858584
sg15
F0
sbag2
(g3
g4
NtRp154
(dp155
g7
F-320
sg8
F-480
sg9
(dp156
g11
I500
ssg12
F4000
sg13
F-4000
sg14
F1898.9898989898988
sg15
F0
sbag2
(g3
g4
NtRp157
(dp158
g7
F-160
sg8
F-320
sg9
(dp159
g11
I500
ssg12
F4000
sg13
F-4000
sg14
F1939.3939393939393
sg15
F0
sbag2
(g3
g4
NtRp160
(dp161
g7
F0
sg8
F-160
sg9
(dp162
g11
I500
ssg12
F4000
sg13
F-4000
sg14
F1979.7979797979797
sg15
F0
sbag2
(g3
g4
NtRp163
(dp164
g7
F160
sg8
F0
sg9
(dp165
g11
I500
ssg12
F4000
sg13
F-4000
sg14
F2020.2020202020201
sg15
F0
sbag2
(g3
g4
NtRp166
(dp167
g7
F320
sg8
F160
sg9
(dp168
g11
I500
ssg12
F4000
sg13
F-4000
sg14
F2060.6060606060605
sg15
F0
sbag2
(g3
g4
NtRp169
(dp170
g7
F480
sg8
F320
sg9
(dp171
g11
I500
ssg12
F4000
sg13
F-4000
sg14
F2101.0101010101007
sg15
F0
sbag2
(g3
g4
NtRp172
(dp173
g7
F640
sg8
F480
sg9
(dp174
g11
I500
ssg12
F4000
sg13
F-4000
sg14
F2141.4141414141413
sg15
F0
sbag2
(g3
g4
NtRp175
(dp176
g7
F800
sg8
F640
sg9
(dp177
g11
I500
ssg12
F4000
sg13
F-4000
sg14
F2181.8181818181815
sg15
F0
sbag2
(g3
g4
NtRp178
(dp179
g7
F960
sg8
F800
sg9
(dp180
g11
I500
ssg12
F4000
sg13
F-4000
sg14
F2222.2222222222222
sg15
F0
sbag2
(g3
g4
NtRp181
(dp182
g7
F1120
sg8
F960
sg9
(dp183
g11
I500
ssg12
F4000
sg13
F-4000
sg14
F2262.6262626262624
sg15
F0
sbag2
(g3
g4
NtRp184
(dp185
g7
F1280
sg8
F1120
sg9
(dp186
g11
I500
ssg12
F4000
sg13
F-4000
sg14
F2303.030303030303
sg15
F0
sbag2
(g3
g4
NtRp187
(dp188
g7
F1440
sg8
F1280
sg9
(dp189
g11
I500
ssg12
F4000
sg13
F-4000
sg14
F2343.4343434343432
sg15
F0
sbag2
(g3
g4
NtRp190
(dp191
g7
F1600
sg8
F1440
sg9
(dp192
g11
I500
ssg12
F4000
sg13
F-4000
sg14
F2383.8383838383838
sg15
F0
sbag2
(g3
g4
NtRp193
(dp194
g7
F1760
sg8
F1600
sg9
(dp195
g11
I500
ssg12
F4000
sg13
F-4000
sg14
F2424.242424242424
sg15
F0
sbag2
(g3
g4
NtRp196
(dp197
g7
F1920
sg8
F1760
sg9
(dp198
g11
I500
ssg12
F4000
sg13
F-4000
sg14
F2464.6464646464647
sg15
F0
sbag2
(g3
g4
NtRp199
(dp200
g7
F2080
sg8
F1920
sg9
(dp201
g11
I500
ssg12
F4000
sg13
F-4000
sg14
F2505.0505050505049
sg15
F0
sbag2
(g3
g4
NtRp202
(dp203
g7
F2240
sg8
F2080
sg9
(dp204
g11
I500
ssg12
F4000
sg13
F-4000
sg14
F2545.4545454545455
sg15
F0
sbag2
(g3
g4
NtRp205
(dp206
g7
F2400
sg8
F2240
sg9
(dp207
g11
I500
ssg12
F4000
sg13
F-4000
sg14
F2585.8585858585857
sg15
F0
sbag2
(g3
g4
NtRp208
(dp209
g7
F2560
sg8
F2400
sg9
(dp210
g11
I500
ssg12
F4000
sg13
F-4000
sg14
F2626.2626262626259
sg15
F0
sbag2
(g3
g4
NtRp211
(dp212
g7
F2720
sg8
F2560
sg9
(dp213
g11
I500
ssg12
F4000
sg13
F-4000
sg14
F2666.6666666666665
sg15
F0
sbag2
(g3
g4
NtRp214
(dp215
g7
F2880
sg8
F2720
sg9
(dp216
g11
I500
ssg12
F4000
sg13
F-4000
sg14
F2707.0707070707067
sg15
F0
sbag2
(g3
g4
NtRp217
(dp218
g7
F3040
sg8
F2880
sg9
(dp219
g11
I500
ssg12
F4000
sg13
F-4000
sg14
F2747.4747474747473
sg15
F0
sbag2
(g3
g4
NtRp220
(dp221
g7
F3200
sg8
F3040
sg9
(dp222
g11
I500
ssg12
F4000
sg13
F-4000
sg14
F2787.8787878787875
sg15
F0
sbag2
(g3
g4
NtRp223
(dp224
g7
F3360
sg8
F3200
sg9
(dp225
g11
I500
ssg12
F4000
sg13
F-4000
sg14
F2828.2828282828282
sg15
F0
sbag2
(g3
g4
NtRp226
(dp227
g7
F3520
sg8
F3360
sg9
(dp228
g11
I500
ssg12
F4000
sg13
F-4000
sg14
F2868.6868686868684
sg15
F0
sbag2
(g3
g4
NtRp229
(dp230
g7
F3680
sg8
F3520
sg9
(dp231
g11
I500
ssg12
F4000
sg13
F-4000
sg14
F2909.090909090909
sg15
F0
sbag2
(g3
g4
NtRp232
(dp233
g7
F3840
sg8
F3680
sg9
(dp234
g11
I500
ssg12
F4000
sg13
F-4000
sg14
F2949.4949494949492
sg15
F0
sbag2
(g3
g4
NtRp235
(dp236
g7
F4000
sg8
F3840
sg9
(dp237
g11
I500
ssg12
F4000
sg13
F-4000
sg14
F2989.8989898989898
sg15
F0
sbag2
(g3
g4
NtRp238
(dp239
g7
F4160
sg8
F4000
sg9
(dp240
g11
I500
ssg12
F4000
sg13
F-4000
sg14
F3030.30303030303
sg15
F0
sbag2
(g3
g4
NtRp241
(dp242
g7
F4320
sg8
F4160
sg9
(dp243
g11
I500
ssg12
F4000
sg13
F-4000
sg14
F3070.7070707070707
sg15
F0
sbag2
(g3
g4
NtRp244
(dp245
g7
F4480
sg8
F4320
sg9
(dp246
g11
I500
ssg12
F4000
sg13
F-4000
sg14
F3111.1111111111109
sg15
F0
sbag2
(g3
g4
NtRp247
(dp248
g7
F4640
sg8
F4480
sg9
(dp249
g11
I500
ssg12
F4000
sg13
F-4000
sg14
F3151.5151515151515
sg15
F0
sbag2
(g3
g4
NtRp250
(dp251
g7
F4800
sg8
F4640
sg9
(dp252
g11
I500
ssg12
F4000
sg13
F-4000
sg14
F3191.9191919191917
sg15
F0
sbag2
(g3
g4
NtRp253
(dp254
g7
F4960
sg8
F4800
sg9
(dp255
g11
I500
ssg12
F4000
sg13
F-4000
sg14
F3232.3232323232323
sg15
F0
sbag2
(g3
g4
NtRp256
(dp257
g7
F5120
sg8
F4960
sg9
(dp258
g11
I500
ssg12
F4000
sg13
F-4000
sg14
F3272.7272727272725
sg15
F0
sbag2
(g3
g4
NtRp259
(dp260
g7
F5280
sg8
F5120
sg9
(dp261
g11
I500
ssg12
F4000
sg13
F-4000
sg14
F3313.1313131313127
sg15
F0
sbag2
(g3
g4
NtRp262
(dp263
g7
F5440
sg8
F5280
sg9
(dp264
g11
I500
ssg12
F4000
sg13
F-4000
sg14
F3353.5353535353534
sg15
F0
sbag2
(g3
g4
NtRp265
(dp266
g7
F5600
sg8
F5440
sg9
(dp267
g11
I500
ssg12
F4000
sg13
F-4000
sg14
F3393.9393939393935
sg15
F0
sbag2
(g3
g4
NtRp268
(dp269
g7
F5760
sg8
F5600
sg9
(dp270
g11
I500
ssg12
F4000
sg13
F-4000
sg14
F3434.3434343434342
sg15
F0
sbag2
(g3
g4
NtRp271
(dp272
g7
F5920
sg8
F5760
sg9
(dp273
g11
I500
ssg12
F4000
sg13
F-4000
sg14
F3474.7474747474744
sg15
F0
sbag2
(g3
g4
NtRp274
(dp275
g7
F6080
sg8
F5920
sg9
(dp276
g11
I500
ssg12
F4000
sg13
F-4000
sg14
F3515.151515151515
sg15
F0
sbag2
(g3
g4
NtRp277
(dp278
g7
F6240
sg8
F6080
sg9
(dp279
g11
I500
ssg12
F4000
sg13
F-4000
sg14
F3555.5555555555552
sg15
F0
sbag2
(g3
g4
NtRp280
(dp281
g7
F6400
sg8
F6240
sg9
(dp282
g11
I500
ssg12
F4000
sg13
F-4000
sg14
F3595.9595959595958
sg15
F0
sbag2
(g3
g4
NtRp283
(dp284
g7
F6560
sg8
F6400
sg9
(dp285
g11
I500
ssg12
F4000
sg13
F-4000
sg14
F3636.363636363636
sg15
F0
sbag2
(g3
g4
NtRp286
(dp287
g7
F6720
sg8
F6560
sg9
(dp288
g11
I500
ssg12
F4000
sg13
F-4000
sg14
F3676.7676767676767
sg15
F0
sbag2
(g3
g4
NtRp289
(dp290
g7
F6880
sg8
F6720
sg9
(dp291
g11
I500
ssg12
F4000
sg13
F-4000
sg14
F3717.1717171717169
sg15
F0
sbag2
(g3
g4
NtRp292
(dp293
g7
F7040
sg8
F6880
sg9
(dp294
g11
I500
ssg12
F4000
sg13
F-4000
sg14
F3757.5757575757575
sg15
F0
sbag2
(g3
g4
NtRp295
(dp296
g7
F7200
sg8
F7040
sg9
(dp297
g11
I500
ssg12
F4000
sg13
F-4000
sg14
F3797.9797979797977
sg15
F0
sbag2
(g3
g4
NtRp298
(dp299
g7
F7360
sg8
F7200
sg9
(dp300
g11
I500
ssg12
F4000
sg13
F-4000
sg14
F3838.3838383838383
sg15
F0
sbag2
(g3
g4
NtRp301
(dp302
g7
F7520
sg8
F7360
sg9
(dp303
g11
I500
ssg12
F4000
sg13
F-4000
sg14
F3878.7878787878785
sg15
F0
sbag2
(g3
g4
NtRp304
(dp305
g7
F7680
sg8
F7520
sg9
(dp306
g11
I500
ssg12
F4000
sg13
F-4000
sg14
F3919.1919191919187
sg15
F0
sbag2
(g3
g4
NtRp307
(dp308
g7
F7840
sg8
F7680
sg9
(dp309
g11
I500
ssg12
F4000
sg13
F-4000
sg14
F3959.5959595959594
sg15
F0
sba.